; ModuleID = '50/182.c'
source_filename = "50/182.c"
target datalayout = "e-m:e-p270:32:32-p271:32:32-p272:64:64-i64:64-f80:128-n8:16:32:64-S128"
target triple = "x86_64-pc-linux-gnu"

@__const.main.z = private unnamed_addr constant [12 x i32] [i32 0, i32 31, i32 28, i32 31, i32 30, i32 31, i32 30, i32 31, i32 31, i32 30, i32 31, i32 30], align 16
@.str = private unnamed_addr constant [3 x i8] c"%d\00", align 1
@.str.1 = private unnamed_addr constant [4 x i8] c"%d\0A\00", align 1

; Function Attrs: noinline nounwind uwtable
define dso_local void @main() #0 {
  %1 = alloca i32, align 4
  %2 = alloca [12 x i32], align 16
  %3 = alloca i32, align 4
  %4 = alloca i32, align 4
  %5 = alloca i32, align 4
  %6 = alloca i32, align 4
  %7 = alloca [12 x i32], align 16
  %8 = bitcast [12 x i32]* %2 to i8*
  call void @llvm.memcpy.p0i8.p0i8.i64(i8* align 16 %8, i8* align 16 bitcast ([12 x i32]* @__const.main.z to i8*), i64 48, i1 false)
  %9 = bitcast [12 x i32]* %7 to i8*
  call void @llvm.memset.p0i8.i64(i8* align 16 %9, i8 0, i64 48, i1 false)
  %10 = call i32 (i8*, ...) @__isoc99_scanf(i8* getelementptr inbounds ([3 x i8], [3 x i8]* @.str, i64 0, i64 0), i32* %1)
  store i32 0, i32* %3, align 4
  br label %11

11:                                               ; preds = %36, %0
  %12 = load i32, i32* %3, align 4
  %13 = icmp slt i32 %12, 12
  br i1 %13, label %14, label %39

14:                                               ; preds = %11
  store i32 0, i32* %5, align 4
  br label %15

15:                                               ; preds = %32, %14
  %16 = load i32, i32* %5, align 4
  %17 = load i32, i32* %3, align 4
  %18 = icmp sle i32 %16, %17
  br i1 %18, label %19, label %35

19:                                               ; preds = %15
  %20 = load i32, i32* %3, align 4
  %21 = sext i32 %20 to i64
  %22 = getelementptr inbounds [12 x i32], [12 x i32]* %7, i64 0, i64 %21
  %23 = load i32, i32* %22, align 4
  %24 = load i32, i32* %5, align 4
  %25 = sext i32 %24 to i64
  %26 = getelementptr inbounds [12 x i32], [12 x i32]* %2, i64 0, i64 %25
  %27 = load i32, i32* %26, align 4
  %28 = add nsw i32 %23, %27
  %29 = load i32, i32* %3, align 4
  %30 = sext i32 %29 to i64
  %31 = getelementptr inbounds [12 x i32], [12 x i32]* %7, i64 0, i64 %30
  store i32 %28, i32* %31, align 4
  br label %32

32:                                               ; preds = %19
  %33 = load i32, i32* %5, align 4
  %34 = add nsw i32 %33, 1
  store i32 %34, i32* %5, align 4
  br label %15

35:                                               ; preds = %15
  br label %36

36:                                               ; preds = %35
  %37 = load i32, i32* %3, align 4
  %38 = add nsw i32 %37, 1
  store i32 %38, i32* %3, align 4
  br label %11

39:                                               ; preds = %11
  store i32 0, i32* %3, align 4
  br label %40

40:                                               ; preds = %59, %39
  %41 = load i32, i32* %3, align 4
  %42 = icmp slt i32 %41, 12
  br i1 %42, label %43, label %62

43:                                               ; preds = %40
  %44 = load i32, i32* %1, align 4
  %45 = load i32, i32* %3, align 4
  %46 = sext i32 %45 to i64
  %47 = getelementptr inbounds [12 x i32], [12 x i32]* %7, i64 0, i64 %46
  %48 = load i32, i32* %47, align 4
  %49 = call i32 @function(i32 %44, i32 %48)
  store i32 %49, i32* %4, align 4
  %50 = load i32, i32* %4, align 4
  %51 = icmp ne i32 %50, 0
  br i1 %51, label %52, label %57

52:                                               ; preds = %43
  %53 = load i32, i32* %3, align 4
  %54 = add nsw i32 %53, 1
  store i32 %54, i32* %6, align 4
  %55 = load i32, i32* %6, align 4
  %56 = call i32 (i8*, ...) @printf(i8* getelementptr inbounds ([4 x i8], [4 x i8]* @.str.1, i64 0, i64 0), i32 %55)
  br label %58

57:                                               ; preds = %43
  br label %59

58:                                               ; preds = %52
  br label %59

59:                                               ; preds = %58, %57
  %60 = load i32, i32* %3, align 4
  %61 = add nsw i32 %60, 1
  store i32 %61, i32* %3, align 4
  br label %40

62:                                               ; preds = %40
  ret void
}

; Function Attrs: argmemonly nounwind willreturn
declare void @llvm.memcpy.p0i8.p0i8.i64(i8* noalias nocapture writeonly, i8* noalias nocapture readonly, i64, i1 immarg) #1

; Function Attrs: argmemonly nounwind willreturn
declare void @llvm.memset.p0i8.i64(i8* nocapture writeonly, i8, i64, i1 immarg) #1

declare dso_local i32 @__isoc99_scanf(i8*, ...) #2

; Function Attrs: noinline nounwind uwtable
define dso_local i32 @function(i32 %0, i32 %1) #0 {
  %3 = alloca i32, align 4
  %4 = alloca i32, align 4
  %5 = alloca i32, align 4
  %6 = alloca i32, align 4
  store i32 %0, i32* %3, align 4
  store i32 %1, i32* %4, align 4
  store i32 0, i32* %5, align 4
  %7 = load i32, i32* %3, align 4
  %8 = load i32, i32* %4, align 4
  %9 = add nsw i32 %7, %8
  %10 = add nsw i32 %9, 13
  %11 = sub nsw i32 %10, 1
  %12 = srem i32 %11, 7
  store i32 %12, i32* %6, align 4
  %13 = load i32, i32* %6, align 4
  %14 = icmp eq i32 %13, 5
  br i1 %14, label %15, label %16

15:                                               ; preds = %2
  store i32 1, i32* %5, align 4
  br label %16

16:                                               ; preds = %15, %2
  %17 = load i32, i32* %5, align 4
  ret i32 %17
}

declare dso_local i32 @printf(i8*, ...) #2


!llvm.module.flags = !{!0}
!llvm.ident = !{!1}

!0 = !{i32 1, !"wchar_size", i32 4}
!1 = !{!"clang version 10.0.0-4ubuntu1 "}
